target datalayout = "e-m:e-p270:32:32-p271:32:32-p272:64:64-i64:64-i128:128-f80:128-n8:16:32:64-S128"
target triple = "x86_64-pc-linux-gnu"

@.str.70 = private unnamed_addr constant [1 x i8] zeroinitializer, align 1

; Function Attrs: nounwind uwtable
define dso_local zeroext i1 @check_recovery_target_xid(ptr noundef %0, ptr noundef %1, i32 noundef %2) #0 {
  %4 = alloca i1, align 1
  %5 = alloca ptr, align 8
  %6 = alloca ptr, align 8
  %7 = alloca i32, align 4
  %8 = alloca i32, align 4
  %9 = alloca ptr, align 8
  %10 = alloca i32, align 4
  store ptr %0, ptr %5, align 8
  store ptr %1, ptr %6, align 8
  store i32 %2, ptr %7, align 4
  %11 = load ptr, ptr %5, align 8
  %12 = load ptr, ptr %11, align 8
  %13 = call i32 @strcmp(ptr noundef %12, ptr noundef @.str.70) #16
  %14 = icmp ne i32 %13, 0
  br i1 %14, label %15, label %38

15:                                               ; preds = %3
  call void @llvm.lifetime.start.p0(i64 4, ptr %8) #14
  call void @llvm.lifetime.start.p0(i64 8, ptr %9) #14
  %16 = call ptr @__errno_location() #17
  store i32 0, ptr %16, align 4
  %17 = load ptr, ptr %5, align 8
  %18 = load ptr, ptr %17, align 8
  %19 = call i64 @strtoul(ptr noundef %18, ptr noundef null, i32 noundef 0) #14
  %20 = trunc i64 %19 to i32
  store i32 %20, ptr %8, align 4
  %21 = call ptr @__errno_location() #17
  %22 = load i32, ptr %21, align 4
  %23 = icmp eq i32 %22, 22
  br i1 %23, label %28, label %24

24:                                               ; preds = %15
  %25 = call ptr @__errno_location() #17
  %26 = load i32, ptr %25, align 4
  %27 = icmp eq i32 %26, 34
  br i1 %27, label %28, label %29

28:                                               ; preds = %24, %15
  store i1 false, ptr %4, align 1
  store i32 1, ptr %10, align 4
  br label %35

29:                                               ; preds = %24
  %30 = call ptr @guc_malloc(i32 noundef 21, i64 noundef 4)
  store ptr %30, ptr %9, align 8
  %31 = load i32, ptr %8, align 4
  %32 = load ptr, ptr %9, align 8
  store i32 %31, ptr %32, align 4
  %33 = load ptr, ptr %9, align 8
  %34 = load ptr, ptr %6, align 8
  store ptr %33, ptr %34, align 8
  store i32 0, ptr %10, align 4
  br label %35

35:                                               ; preds = %29, %28
  call void @llvm.lifetime.end.p0(i64 8, ptr %9) #14
  call void @llvm.lifetime.end.p0(i64 4, ptr %8) #14
  %36 = load i32, ptr %10, align 4
  switch i32 %36, label %41 [
    i32 0, label %37
    i32 1, label %39
  ]

37:                                               ; preds = %35
  br label %38

38:                                               ; preds = %37, %3
  store i1 true, ptr %4, align 1
  br label %39

39:                                               ; preds = %38, %35
  %40 = load i1, ptr %4, align 1
  ret i1 %40

41:                                               ; preds = %35
  unreachable
}