; Function Attrs: nounwind uwtable
define dso_local noundef zeroext i1 @check_recovery_target_xid(ptr noundef readonly captures(none) %0, ptr noundef writeonly captures(none) %1, i32 noundef %2) local_unnamed_addr #2 {
  %4 = load ptr, ptr %0, align 8
  %strcmpload = load i8, ptr %4, align 1
  %.not = icmp eq i8 %strcmpload, 0
  br i1 %.not, label %12, label %5

5:                                                ; preds = %3
  %6 = tail call ptr @__errno_location() #25
  store i32 0, ptr %6, align 4
  %7 = load ptr, ptr %0, align 8
  %8 = tail call i64 @strtoul(ptr noundef captures(none) %7, ptr noundef null, i32 noundef 0) #23
  %9 = load i32, ptr %6, align 4
  switch i32 %9, label %.thread [
    i32 22, label %12
    i32 34, label %12
  ]

.thread:                                          ; preds = %5
  %10 = trunc i64 %8 to i32
  %11 = tail call ptr @guc_malloc(i32 noundef 21, i64 noundef 4) #23
  store i32 %10, ptr %11, align 4
  store ptr %11, ptr %1, align 8
  br label %12

12:                                               ; preds = %3, %.thread, %5, %5
  %.1 = phi i1 [ false, %5 ], [ false, %5 ], [ true, %.thread ], [ true, %3 ]
  ret i1 %.1
}